
Memory Configuration

Name             Origin             Length             Attributes
*default*        0x0000000000000000 0xffffffffffffffff

Linker script and memory map

LOAD nasmfunc.obj
LOAD bootpack.obj
LOAD console.obj
LOAD dsctbl.obj
LOAD fifo.obj
LOAD file.obj
LOAD graphic.obj
LOAD hankaku.obj
LOAD int.obj
LOAD keyboard.obj
LOAD memory.obj
LOAD mouse.obj
LOAD mtask.obj
LOAD mystdio.obj
LOAD mystring.obj
LOAD sheet.obj
LOAD timer.obj
LOAD window.obj

.head           0x0000000000000000       0x24
                0x0000000000000000        0x4 LONG 0x10000
                0x0000000000000004        0x4 LONG 0x69726148
                0x0000000000000008        0x4 LONG 0x0
                0x000000000000000c        0x4 LONG 0x310000
                0x0000000000000010        0x4 LONG 0x3ae0 SIZEOF (.data)
                0x0000000000000014        0x4 LONG 0x4aa6 LOADADDR (.data)
                0x0000000000000018        0x4 LONG 0xe9000000
                0x000000000000001c        0x4 LONG 0x14c (HariMain - 0x20)
                0x0000000000000020        0x4 LONG 0x0

.text           0x0000000000000030     0x4a76
 *(.text)
 .text          0x0000000000000030      0x13c nasmfunc.obj
                0x0000000000000030                io_hlt
                0x0000000000000032                io_cli
                0x0000000000000034                io_sti
                0x0000000000000036                io_stihlt
                0x0000000000000039                io_in8
                0x0000000000000044                io_in16
                0x0000000000000050                io_in32
                0x0000000000000056                io_out8
                0x0000000000000060                io_out16
                0x000000000000006c                io_out32
                0x0000000000000076                io_load_eflags
                0x0000000000000079                io_store_eflags
                0x0000000000000080                load_gdtr
                0x0000000000000090                load_idtr
                0x00000000000000a0                load_cr0
                0x00000000000000a4                store_cr0
                0x00000000000000ac                load_tr
                0x00000000000000b2                asm_inthandler20
                0x00000000000000c9                asm_inthandler21
                0x00000000000000e0                asm_inthandler27
                0x00000000000000f7                asm_inthandler2c
                0x000000000000010e                memtest_sub
                0x0000000000000150                farjmp
                0x0000000000000155                asm_cons_putchar
 .text          0x000000000000016c      0xb1d bootpack.obj
                0x000000000000016c                HariMain
 .text          0x0000000000000c89      0xb5c console.obj
                0x0000000000000c89                console_task
                0x0000000000001009                cons_putchar
                0x0000000000001110                cons_newline
                0x0000000000001215                cons_runcmd
                0x0000000000001345                cmd_mem
                0x000000000000140a                cmd_cls
                0x0000000000001488                cmd_dir
                0x00000000000015bc                cmd_type
                0x00000000000016ce                cmd_hlt
 .text          0x00000000000017e5      0x20d dsctbl.obj
                0x00000000000017e5                init_gdtidt
                0x000000000000193c                set_segmdesc
                0x00000000000019b3                set_gatedesc
 .text          0x00000000000019f2      0x17c fifo.obj
                0x00000000000019f2                fifo32_init
                0x0000000000001a39                fifo32_put
                0x0000000000001ae8                fifo32_get
                0x0000000000001b59                fifo32_status
 .text          0x0000000000001b6e      0x2ad file.obj
                0x0000000000001b6e                file_readfat
                0x0000000000001c20                file_loadfile
                0x0000000000001cc6                file_search
 .text          0x0000000000001e1b      0x5d4 graphic.obj
                0x0000000000001e1b                init_palette
                0x0000000000001e3a                set_palette
                0x0000000000001efa                boxfill8
                0x0000000000001f4b                init_screen
                0x0000000000002168                putfont8
                0x0000000000002263                putfonts8_asc
                0x00000000000022b1                init_mouse_cursor8
                0x0000000000002383                putblock8_8
 .text          0x00000000000023ef        0x0 hankaku.obj
 .text          0x00000000000023ef       0xf7 int.obj
                0x00000000000023ef                init_pic
                0x00000000000024cc                inthandler27
 .text          0x00000000000024e6       0xac keyboard.obj
                0x00000000000024e6                inthandler21
                0x000000000000252d                wait_KBC_sendready
                0x000000000000254f                init_keyboard
 .text          0x0000000000002592      0x4b3 memory.obj
                0x0000000000002592                memtest
                0x000000000000264b                memman_init
                0x0000000000002678                memman_total
                0x00000000000026b2                memman_alloc
                0x0000000000002799                memman_free
                0x00000000000029e6                memman_alloc_4k
                0x0000000000002a14                memman_free_4k
 .text          0x0000000000002a45      0x1ea mouse.obj
                0x0000000000002a45                inthandler2c
                0x0000000000002a9e                enable_mouse
                0x0000000000002aee                mouse_decode
 .text          0x0000000000002c2f      0x704 mtask.obj
                0x0000000000002c2f                task_now
                0x0000000000002c75                task_add
                0x0000000000002cd4                task_remove
                0x0000000000002da5                task_switchsub
                0x0000000000002e06                task_idle
                0x0000000000002e13                task_init
                0x0000000000003059                task_alloc
                0x000000000000317c                task_run
                0x00000000000031eb                task_sleep
                0x000000000000323d                task_switch
 .text          0x0000000000003333      0x3d3 mystdio.obj
                0x0000000000003333                dec2asc
                0x000000000000344e                hex2asc
                0x00000000000035d2                mysprintf
 .text          0x0000000000003706      0x1b4 mystring.obj
                0x0000000000003706                mystrcmp
                0x00000000000037e4                mystrncmp
 .text          0x00000000000038ba      0xa45 sheet.obj
                0x00000000000038ba                shtctl_init
                0x000000000000399e                sheet_alloc
                0x0000000000003a16                sheet_setbuf
                0x0000000000003a3f                sheet_refreshmap
                0x0000000000003c04                sheet_refreshsub
                0x0000000000003de5                sheet_updown
                0x0000000000004152                sheet_refresh
                0x00000000000041c3                sheet_slide
                0x00000000000042d6                sheet_free
 .text          0x00000000000042ff      0x2ae timer.obj
                0x00000000000042ff                init_pit
                0x00000000000043a8                timer_alloc
                0x0000000000004413                timer_free
                0x0000000000004423                timer_init
                0x000000000000443d                timer_settime
                0x00000000000044f7                inthandler20
 .text          0x00000000000045ad      0x4f9 window.obj
                0x00000000000045ad                make_window8
                0x0000000000004719                make_wtitle8
                0x0000000000004808                putfonts8_asc_sht
                0x00000000000048a7                make_textbox8

.data           0x0000000000310000     0x3ae0 load address 0x0000000000004aa6
 *(.data)
 .data          0x0000000000310000      0x100 bootpack.obj
 .data          0x0000000000310100        0x0 console.obj
 .data          0x0000000000310100        0x0 dsctbl.obj
 .data          0x0000000000310100        0x0 fifo.obj
 .data          0x0000000000310100        0x0 file.obj
 .data          0x0000000000310100      0x140 graphic.obj
 .data          0x0000000000310240     0x1000 hankaku.obj
                0x0000000000310240                hankaku
 .data          0x0000000000311240        0x0 int.obj
 .data          0x0000000000311240        0x0 keyboard.obj
 .data          0x0000000000311240        0x0 memory.obj
 .data          0x0000000000311240        0x0 mouse.obj
 .data          0x0000000000311240        0x0 mtask.obj
 .data          0x0000000000311240        0x0 mystdio.obj
 .data          0x0000000000311240        0x0 mystring.obj
 .data          0x0000000000311240        0x0 sheet.obj
 .data          0x0000000000311240        0x0 timer.obj
 .data          0x0000000000311240       0xe0 window.obj
 *(.rodata*)
 .rodata        0x0000000000311320       0x11 bootpack.obj
 .rodata        0x0000000000311331       0x68 console.obj
 *(.bss)
 .bss           0x0000000000311399        0x0 bootpack.obj
 .bss           0x0000000000311399        0x0 console.obj
 .bss           0x0000000000311399        0x0 dsctbl.obj
 .bss           0x0000000000311399        0x0 fifo.obj
 .bss           0x0000000000311399        0x0 file.obj
 .bss           0x0000000000311399        0x0 graphic.obj
 .bss           0x0000000000311399        0x0 hankaku.obj
 .bss           0x0000000000311399        0x0 int.obj
 *fill*         0x0000000000311399        0x3 
 .bss           0x000000000031139c        0x8 keyboard.obj
                0x000000000031139c                keyfifo
                0x00000000003113a0                keydata0
 .bss           0x00000000003113a4        0x0 memory.obj
 .bss           0x00000000003113a4        0x8 mouse.obj
                0x00000000003113a4                mousefifo
                0x00000000003113a8                mousedata0
 .bss           0x00000000003113ac        0x8 mtask.obj
                0x00000000003113ac                taskctl
                0x00000000003113b0                task_timer
 .bss           0x00000000003113b4        0x0 mystdio.obj
 .bss           0x00000000003113b4        0x0 mystring.obj
 .bss           0x00000000003113b4        0x0 sheet.obj
 *fill*         0x00000000003113b4        0xc 
 .bss           0x00000000003113c0     0x2720 timer.obj
                0x00000000003113c0                timerctl
 .bss           0x0000000000313ae0        0x0 window.obj

/DISCARD/
 *(.eh_frame)
OUTPUT(bootpack.hrb binary)

.comment        0x0000000000000000      0x143
 .comment       0x0000000000000000       0x13 bootpack.obj
 .comment       0x0000000000000013       0x13 console.obj
 .comment       0x0000000000000026       0x13 dsctbl.obj
 .comment       0x0000000000000039       0x13 fifo.obj
 .comment       0x000000000000004c       0x13 file.obj
 .comment       0x000000000000005f       0x13 graphic.obj
 .comment       0x0000000000000072       0x13 hankaku.obj
 .comment       0x0000000000000085       0x13 int.obj
 .comment       0x0000000000000098       0x13 keyboard.obj
 .comment       0x00000000000000ab       0x13 memory.obj
 .comment       0x00000000000000be       0x13 mouse.obj
 .comment       0x00000000000000d1       0x13 mtask.obj
 .comment       0x00000000000000e4       0x13 mystdio.obj
 .comment       0x00000000000000f7       0x13 mystring.obj
 .comment       0x000000000000010a       0x13 sheet.obj
 .comment       0x000000000000011d       0x13 timer.obj
 .comment       0x0000000000000130       0x13 window.obj
